target datalayout = "e-m:e-p270:32:32-p271:32:32-p272:64:64-i64:64-i128:128-f80:128-n8:16:32:64-S128"
target triple = "x86_64-pc-linux-gnu"

%class.anon.15 = type { ptr, ptr, ptr }
%"class.pbrt::TaggedPointer" = type { i64 }

@.str.95 = private unnamed_addr constant [112 x i8] c"generated/home/dtcxzyw/WorkSpace/Projects/compilers/llvm-opt-benchmark/bench/pbrt-v4/pbrt-v4/src/pbrt/cameras.h\00", align 1
@.str.99 = private unnamed_addr constant [46 x i8] c"PDF_We() unimplemented for OrthographicCamera\00", align 1
@.str.100 = private unnamed_addr constant [43 x i8] c"PDF_We() unimplemented for SphericalCamera\00", align 1
@.str.101 = private unnamed_addr constant [43 x i8] c"PDF_We() unimplemented for RealisticCamera\00", align 1

; Function Attrs: mustprogress uwtable
define linkonce_odr dso_local void @_ZNK4pbrt15RealisticCamera6PDF_WeERKNS_3RayEPfS4_(ptr noundef nonnull align 8 dereferenceable(1128) %0, ptr noundef nonnull align 8 dereferenceable(40) %1, ptr noundef %2, ptr noundef %3) #1 comdat align 2 {
  %5 = alloca ptr, align 8
  %6 = alloca ptr, align 8
  %7 = alloca ptr, align 8
  %8 = alloca ptr, align 8
  store ptr %0, ptr %5, align 8, !tbaa !197
  store ptr %1, ptr %6, align 8, !tbaa !58
  store ptr %2, ptr %7, align 8, !tbaa !65
  store ptr %3, ptr %8, align 8, !tbaa !65
  call void @_ZN4pbrt8LogFatalENS_8LogLevelEPKciS2_(i32 noundef 2, ptr noundef @.str.95, i32 noundef 497, ptr noundef @.str.101) #22
  unreachable
}

; Function Attrs: mustprogress uwtable
define linkonce_odr dso_local void @_ZNK4pbrt15SphericalCamera6PDF_WeERKNS_3RayEPfS4_(ptr noundef nonnull align 8 dereferenceable(900) %0, ptr noundef nonnull align 8 dereferenceable(40) %1, ptr noundef %2, ptr noundef %3) #1 comdat align 2 {
  %5 = alloca ptr, align 8
  %6 = alloca ptr, align 8
  %7 = alloca ptr, align 8
  %8 = alloca ptr, align 8
  store ptr %0, ptr %5, align 8, !tbaa !201
  store ptr %1, ptr %6, align 8, !tbaa !58
  store ptr %2, ptr %7, align 8, !tbaa !65
  store ptr %3, ptr %8, align 8, !tbaa !65
  call void @_ZN4pbrt8LogFatalENS_8LogLevelEPKciS2_(i32 noundef 2, ptr noundef @.str.95, i32 noundef 442, ptr noundef @.str.100) #22
  unreachable
}

; Function Attrs: mustprogress uwtable
define linkonce_odr dso_local void @_ZNK4pbrt18OrthographicCamera6PDF_WeERKNS_3RayEPfS4_(ptr noundef nonnull align 8 dereferenceable(1440) %0, ptr noundef nonnull align 8 dereferenceable(40) %1, ptr noundef %2, ptr noundef %3) #1 comdat align 2 {
  %5 = alloca ptr, align 8
  %6 = alloca ptr, align 8
  %7 = alloca ptr, align 8
  %8 = alloca ptr, align 8
  store ptr %0, ptr %5, align 8, !tbaa !176
  store ptr %1, ptr %6, align 8, !tbaa !58
  store ptr %2, ptr %7, align 8, !tbaa !65
  store ptr %3, ptr %8, align 8, !tbaa !65
  call void @_ZN4pbrt8LogFatalENS_8LogLevelEPKciS2_(i32 noundef 2, ptr noundef @.str.95, i32 noundef 322, ptr noundef @.str.99) #22
  unreachable
}

; Function Attrs: inlinehint mustprogress uwtable
define internal void @"_ZZNK4pbrt6Camera6PDF_WeERKNS_3RayEPfS4_ENK3$_0clIPKNS_15RealisticCameraEEEDaT_"(ptr noundef nonnull align 8 dereferenceable(24) %0, ptr noundef %1) #10 align 2 {
  %3 = alloca ptr, align 8
  %4 = alloca ptr, align 8
  store ptr %0, ptr %3, align 8, !tbaa !57
  store ptr %1, ptr %4, align 8, !tbaa !197
  %5 = load ptr, ptr %3, align 8
  %6 = load ptr, ptr %4, align 8, !tbaa !197
  %7 = getelementptr inbounds nuw %class.anon.15, ptr %5, i32 0, i32 0
  %8 = load ptr, ptr %7, align 8, !tbaa !419
  %9 = getelementptr inbounds nuw %class.anon.15, ptr %5, i32 0, i32 1
  %10 = load ptr, ptr %9, align 8, !tbaa !421
  %11 = load ptr, ptr %10, align 8, !tbaa !65
  %12 = getelementptr inbounds nuw %class.anon.15, ptr %5, i32 0, i32 2
  %13 = load ptr, ptr %12, align 8, !tbaa !422
  %14 = load ptr, ptr %13, align 8, !tbaa !65
  call void @_ZNK4pbrt15RealisticCamera6PDF_WeERKNS_3RayEPfS4_(ptr noundef nonnull align 8 dereferenceable(1128) %6, ptr noundef nonnull align 8 dereferenceable(40) %8, ptr noundef %11, ptr noundef %14)
  ret void
}

; Function Attrs: inlinehint mustprogress uwtable
define internal void @"_ZZNK4pbrt6Camera6PDF_WeERKNS_3RayEPfS4_ENK3$_0clIPKNS_15SphericalCameraEEEDaT_"(ptr noundef nonnull align 8 dereferenceable(24) %0, ptr noundef %1) #10 align 2 {
  %3 = alloca ptr, align 8
  %4 = alloca ptr, align 8
  store ptr %0, ptr %3, align 8, !tbaa !57
  store ptr %1, ptr %4, align 8, !tbaa !201
  %5 = load ptr, ptr %3, align 8
  %6 = load ptr, ptr %4, align 8, !tbaa !201
  %7 = getelementptr inbounds nuw %class.anon.15, ptr %5, i32 0, i32 0
  %8 = load ptr, ptr %7, align 8, !tbaa !419
  %9 = getelementptr inbounds nuw %class.anon.15, ptr %5, i32 0, i32 1
  %10 = load ptr, ptr %9, align 8, !tbaa !421
  %11 = load ptr, ptr %10, align 8, !tbaa !65
  %12 = getelementptr inbounds nuw %class.anon.15, ptr %5, i32 0, i32 2
  %13 = load ptr, ptr %12, align 8, !tbaa !422
  %14 = load ptr, ptr %13, align 8, !tbaa !65
  call void @_ZNK4pbrt15SphericalCamera6PDF_WeERKNS_3RayEPfS4_(ptr noundef nonnull align 8 dereferenceable(900) %6, ptr noundef nonnull align 8 dereferenceable(40) %8, ptr noundef %11, ptr noundef %14)
  ret void
}

; Function Attrs: inlinehint mustprogress uwtable
define internal void @"_ZZNK4pbrt6Camera6PDF_WeERKNS_3RayEPfS4_ENK3$_0clIPKNS_18OrthographicCameraEEEDaT_"(ptr noundef nonnull align 8 dereferenceable(24) %0, ptr noundef %1) #10 align 2 {
  %3 = alloca ptr, align 8
  %4 = alloca ptr, align 8
  store ptr %0, ptr %3, align 8, !tbaa !57
  store ptr %1, ptr %4, align 8, !tbaa !176
  %5 = load ptr, ptr %3, align 8
  %6 = load ptr, ptr %4, align 8, !tbaa !176
  %7 = getelementptr inbounds nuw %class.anon.15, ptr %5, i32 0, i32 0
  %8 = load ptr, ptr %7, align 8, !tbaa !419
  %9 = getelementptr inbounds nuw %class.anon.15, ptr %5, i32 0, i32 1
  %10 = load ptr, ptr %9, align 8, !tbaa !421
  %11 = load ptr, ptr %10, align 8, !tbaa !65
  %12 = getelementptr inbounds nuw %class.anon.15, ptr %5, i32 0, i32 2
  %13 = load ptr, ptr %12, align 8, !tbaa !422
  %14 = load ptr, ptr %13, align 8, !tbaa !65
  call void @_ZNK4pbrt18OrthographicCamera6PDF_WeERKNS_3RayEPfS4_(ptr noundef nonnull align 8 dereferenceable(1440) %6, ptr noundef nonnull align 8 dereferenceable(40) %8, ptr noundef %11, ptr noundef %14)
  ret void
}

; Function Attrs: inlinehint mustprogress uwtable
define internal void @"_ZZNK4pbrt6Camera6PDF_WeERKNS_3RayEPfS4_ENK3$_0clIPKNS_17PerspectiveCameraEEEDaT_"(ptr noundef nonnull align 8 dereferenceable(24) %0, ptr noundef %1) #10 align 2 {
  %3 = alloca ptr, align 8
  %4 = alloca ptr, align 8
  store ptr %0, ptr %3, align 8, !tbaa !57
  store ptr %1, ptr %4, align 8, !tbaa !174
  %5 = load ptr, ptr %3, align 8
  %6 = load ptr, ptr %4, align 8, !tbaa !174
  %7 = getelementptr inbounds nuw %class.anon.15, ptr %5, i32 0, i32 0
  %8 = load ptr, ptr %7, align 8, !tbaa !419
  %9 = getelementptr inbounds nuw %class.anon.15, ptr %5, i32 0, i32 1
  %10 = load ptr, ptr %9, align 8, !tbaa !421
  %11 = load ptr, ptr %10, align 8, !tbaa !65
  %12 = getelementptr inbounds nuw %class.anon.15, ptr %5, i32 0, i32 2
  %13 = load ptr, ptr %12, align 8, !tbaa !422
  %14 = load ptr, ptr %13, align 8, !tbaa !65
  call void @_ZNK4pbrt17PerspectiveCamera6PDF_WeERKNS_3RayEPfS4_(ptr noundef nonnull align 8 dereferenceable(1448) %6, ptr noundef nonnull align 8 dereferenceable(40) %8, ptr noundef %11, ptr noundef %14)
  ret void
}

; Function Attrs: mustprogress uwtable
define internal void @"_ZN4pbrt6detail8DispatchIRZNKS_6Camera6PDF_WeERKNS_3RayEPfS6_E3$_0vNS_17PerspectiveCameraENS_18OrthographicCameraENS_15SphericalCameraENS_15RealisticCameraEEET0_OT_PKvi"(ptr noundef nonnull align 8 dereferenceable(24) %0, ptr noundef %1, i32 noundef %2) #1 {
  %4 = alloca ptr, align 8
  %5 = alloca ptr, align 8
  %6 = alloca i32, align 4
  store ptr %0, ptr %4, align 8, !tbaa !57
  store ptr %1, ptr %5, align 8, !tbaa !57
  store i32 %2, ptr %6, align 4, !tbaa !48
  br label %7

7:                                                ; preds = %3
  br label %8

8:                                                ; preds = %7
  br label %9

9:                                                ; preds = %8
  br label %10

10:                                               ; preds = %9
  %11 = load i32, ptr %6, align 4, !tbaa !48
  switch i32 %11, label %21 [
    i32 0, label %12
    i32 1, label %15
    i32 2, label %18
  ]

12:                                               ; preds = %10
  %13 = load ptr, ptr %4, align 8, !tbaa !57
  %14 = load ptr, ptr %5, align 8, !tbaa !57
  call void @"_ZZNK4pbrt6Camera6PDF_WeERKNS_3RayEPfS4_ENK3$_0clIPKNS_17PerspectiveCameraEEEDaT_"(ptr noundef nonnull align 8 dereferenceable(24) %13, ptr noundef %14)
  br label %24

15:                                               ; preds = %10
  %16 = load ptr, ptr %4, align 8, !tbaa !57
  %17 = load ptr, ptr %5, align 8, !tbaa !57
  call void @"_ZZNK4pbrt6Camera6PDF_WeERKNS_3RayEPfS4_ENK3$_0clIPKNS_18OrthographicCameraEEEDaT_"(ptr noundef nonnull align 8 dereferenceable(24) %16, ptr noundef %17)
  br label %24

18:                                               ; preds = %10
  %19 = load ptr, ptr %4, align 8, !tbaa !57
  %20 = load ptr, ptr %5, align 8, !tbaa !57
  call void @"_ZZNK4pbrt6Camera6PDF_WeERKNS_3RayEPfS4_ENK3$_0clIPKNS_15SphericalCameraEEEDaT_"(ptr noundef nonnull align 8 dereferenceable(24) %19, ptr noundef %20)
  br label %24

21:                                               ; preds = %10
  %22 = load ptr, ptr %4, align 8, !tbaa !57
  %23 = load ptr, ptr %5, align 8, !tbaa !57
  call void @"_ZZNK4pbrt6Camera6PDF_WeERKNS_3RayEPfS4_ENK3$_0clIPKNS_15RealisticCameraEEEDaT_"(ptr noundef nonnull align 8 dereferenceable(24) %22, ptr noundef %23)
  br label %24

24:                                               ; preds = %21, %18, %15, %12
  ret void
}

; Function Attrs: mustprogress nounwind uwtable
define linkonce_odr dso_local noundef i32 @_ZNK4pbrt13TaggedPointerIJNS_17PerspectiveCameraENS_18OrthographicCameraENS_15SphericalCameraENS_15RealisticCameraEEE3TagEv(ptr noundef nonnull align 8 dereferenceable(8) %0) #6 comdat align 2 {
  %2 = alloca ptr, align 8
  store ptr %0, ptr %2, align 8, !tbaa !55
  %3 = load ptr, ptr %2, align 8
  %4 = getelementptr inbounds nuw %"class.pbrt::TaggedPointer", ptr %3, i32 0, i32 0
  %5 = load i64, ptr %4, align 8, !tbaa !75
  %6 = and i64 %5, -144115188075855872
  %7 = lshr i64 %6, 57
  %8 = trunc i64 %7 to i32
  ret i32 %8
}

; Function Attrs: mustprogress nounwind uwtable
define linkonce_odr dso_local noundef ptr @_ZNK4pbrt13TaggedPointerIJNS_17PerspectiveCameraENS_18OrthographicCameraENS_15SphericalCameraENS_15RealisticCameraEEE3ptrEv(ptr noundef nonnull align 8 dereferenceable(8) %0) #6 comdat align 2 {
  %2 = alloca ptr, align 8
  store ptr %0, ptr %2, align 8, !tbaa !55
  %3 = load ptr, ptr %2, align 8
  %4 = getelementptr inbounds nuw %"class.pbrt::TaggedPointer", ptr %3, i32 0, i32 0
  %5 = load i64, ptr %4, align 8, !tbaa !75
  %6 = and i64 %5, 144115188075855871
  %7 = inttoptr i64 %6 to ptr
  ret ptr %7
}

; Function Attrs: mustprogress uwtable
define internal void @"_ZNK4pbrt13TaggedPointerIJNS_17PerspectiveCameraENS_18OrthographicCameraENS_15SphericalCameraENS_15RealisticCameraEEE8DispatchIRZNKS_6Camera6PDF_WeERKNS_3RayEPfSB_E3$_0EEDcOT_"(ptr noundef nonnull align 8 dereferenceable(8) %0, ptr noundef nonnull align 8 dereferenceable(24) %1) #1 align 2 {
  %3 = alloca ptr, align 8
  %4 = alloca ptr, align 8
  store ptr %0, ptr %3, align 8, !tbaa !55
  store ptr %1, ptr %4, align 8, !tbaa !57
  %5 = load ptr, ptr %3, align 8
  br label %6

6:                                                ; preds = %2
  br label %7

7:                                                ; preds = %6
  %8 = load ptr, ptr %4, align 8, !tbaa !57
  %9 = call noundef ptr @_ZNK4pbrt13TaggedPointerIJNS_17PerspectiveCameraENS_18OrthographicCameraENS_15SphericalCameraENS_15RealisticCameraEEE3ptrEv(ptr noundef nonnull align 8 dereferenceable(8) %5)
  %10 = call noundef i32 @_ZNK4pbrt13TaggedPointerIJNS_17PerspectiveCameraENS_18OrthographicCameraENS_15SphericalCameraENS_15RealisticCameraEEE3TagEv(ptr noundef nonnull align 8 dereferenceable(8) %5)
  %11 = sub i32 %10, 1
  call void @"_ZN4pbrt6detail8DispatchIRZNKS_6Camera6PDF_WeERKNS_3RayEPfS6_E3$_0vNS_17PerspectiveCameraENS_18OrthographicCameraENS_15SphericalCameraENS_15RealisticCameraEEET0_OT_PKvi"(ptr noundef nonnull align 8 dereferenceable(24) %8, ptr noundef %9, i32 noundef %11)
  ret void
}

; Function Attrs: mustprogress uwtable
define dso_local void @_ZNK4pbrt6Camera6PDF_WeERKNS_3RayEPfS4_(ptr noundef nonnull align 8 dereferenceable(8) %0, ptr noundef nonnull align 8 dereferenceable(40) %1, ptr noundef %2, ptr noundef %3) #1 align 2 {
  %5 = alloca ptr, align 8
  %6 = alloca ptr, align 8
  %7 = alloca ptr, align 8
  %8 = alloca ptr, align 8
  %9 = alloca %class.anon.15, align 8
  store ptr %0, ptr %5, align 8, !tbaa !49
  store ptr %1, ptr %6, align 8, !tbaa !58
  store ptr %2, ptr %7, align 8, !tbaa !65
  store ptr %3, ptr %8, align 8, !tbaa !65
  %10 = load ptr, ptr %5, align 8
  call void @llvm.lifetime.start.p0(i64 24, ptr %9) #15
  %11 = getelementptr inbounds nuw %class.anon.15, ptr %9, i32 0, i32 0
  %12 = load ptr, ptr %6, align 8, !tbaa !58
  store ptr %12, ptr %11, align 8, !tbaa !58
  %13 = getelementptr inbounds nuw %class.anon.15, ptr %9, i32 0, i32 1
  store ptr %7, ptr %13, align 8, !tbaa !67
  %14 = getelementptr inbounds nuw %class.anon.15, ptr %9, i32 0, i32 2
  store ptr %8, ptr %14, align 8, !tbaa !67
  call void @"_ZNK4pbrt13TaggedPointerIJNS_17PerspectiveCameraENS_18OrthographicCameraENS_15SphericalCameraENS_15RealisticCameraEEE8DispatchIRZNKS_6Camera6PDF_WeERKNS_3RayEPfSB_E3$_0EEDcOT_"(ptr noundef nonnull align 8 dereferenceable(8) %10, ptr noundef nonnull align 8 dereferenceable(24) %9)
  call void @llvm.lifetime.end.p0(i64 24, ptr %9) #15
  ret void
}