; Function Attrs: mustprogress uwtable
define dso_local void @_ZNK4pbrt6Camera6PDF_WeERKNS_3RayEPfS4_(ptr noundef nonnull readonly align 8 captures(none) dereferenceable(8) %0, ptr noundef nonnull readonly align 8 captures(none) dereferenceable(40) %1, ptr noundef writeonly captures(none) %2, ptr noundef writeonly captures(none) %3) local_unnamed_addr #2 align 2 {
  %.val = load i64, ptr %0, align 8, !tbaa !52
  %5 = lshr i64 %.val, 57
  %6 = trunc nuw nsw i64 %5 to i32
  switch i32 %6, label %9 [
    i32 1, label %"_ZNK4pbrt13TaggedPointerIJNS_17PerspectiveCameraENS_18OrthographicCameraENS_15SphericalCameraENS_15RealisticCameraEEE8DispatchIRZNKS_6Camera6PDF_WeERKNS_3RayEPfSB_E3$_0EEDcOT_.exit"
    i32 2, label %7
    i32 3, label %8
  ]

7:                                                ; preds = %4
  tail call void @_ZN4pbrt8LogFatalENS_8LogLevelEPKciS2_(i32 noundef 2, ptr noundef nonnull @.str.95, i32 noundef 322, ptr noundef nonnull @.str.99) #30
  unreachable

8:                                                ; preds = %4
  tail call void @_ZN4pbrt8LogFatalENS_8LogLevelEPKciS2_(i32 noundef 2, ptr noundef nonnull @.str.95, i32 noundef 442, ptr noundef nonnull @.str.100) #30
  unreachable

9:                                                ; preds = %4
  tail call void @_ZN4pbrt8LogFatalENS_8LogLevelEPKciS2_(i32 noundef 2, ptr noundef nonnull @.str.95, i32 noundef 497, ptr noundef nonnull @.str.101) #30
  unreachable

"_ZNK4pbrt13TaggedPointerIJNS_17PerspectiveCameraENS_18OrthographicCameraENS_15SphericalCameraENS_15RealisticCameraEEE8DispatchIRZNKS_6Camera6PDF_WeERKNS_3RayEPfSB_E3$_0EEDcOT_.exit": ; preds = %4
  %10 = and i64 %.val, 144115188075855871
  %11 = inttoptr i64 %10 to ptr
  tail call void @_ZNK4pbrt17PerspectiveCamera6PDF_WeERKNS_3RayEPfS4_(ptr noundef nonnull align 8 dereferenceable(1448) %11, ptr noundef nonnull align 8 dereferenceable(40) %1, ptr noundef %2, ptr noundef %3)
  ret void
}